; Function Attrs: mustprogress nofree norecurse nosync nounwind willreturn memory(argmem: readwrite) uwtable
define internal void @callReplyVerbatimString(ptr noundef captures(none) initializes((16, 36), (40, 64)) %0, ptr noundef %1, ptr noundef %2, i64 noundef %3, ptr noundef %4, i64 noundef %5) #5 {
  %7 = getelementptr inbounds nuw i8, ptr %0, i64 32
  store i32 10, ptr %7, align 8, !tbaa !15
  %8 = getelementptr inbounds nuw i8, ptr %0, i64 16
  store ptr %4, ptr %8, align 8, !tbaa !25
  %9 = getelementptr inbounds nuw i8, ptr %0, i64 24
  store i64 %5, ptr %9, align 8, !tbaa !34
  %10 = getelementptr inbounds nuw i8, ptr %0, i64 36
  %11 = load i32, ptr %10, align 4, !tbaa !5
  %12 = or i32 %11, 4
  store i32 %12, ptr %10, align 4, !tbaa !5
  %13 = getelementptr inbounds nuw i8, ptr %0, i64 40
  store i64 %3, ptr %13, align 8, !tbaa !18
  %14 = getelementptr inbounds nuw i8, ptr %0, i64 48
  store ptr %2, ptr %14, align 8, !tbaa !19
  %15 = getelementptr inbounds nuw i8, ptr %0, i64 56
  store ptr %1, ptr %15, align 8, !tbaa !19
  ret void
}